; Function Attrs: nounwind uwtable
define internal fastcc range(i32 -2147483648, 1) i32 @file_vopen(ptr noundef %0, ptr noundef %1, i32 noundef %2, i32 noundef %3, ptr noundef nonnull captures(none) %4) unnamed_addr #0 {
  %6 = alloca %struct.inode_search_s, align 8
  %7 = icmp eq ptr %1, null
  br i1 %7, label %96, label %8

8:                                                ; preds = %5
  %9 = and i32 %2, 4
  %.not = icmp eq i32 %9, 0
  br i1 %.not, label %26, label %10

10:                                               ; preds = %8
  %11 = load i32, ptr %4, align 8
  %12 = icmp ult i32 %11, 41
  br i1 %12, label %13, label %19

13:                                               ; preds = %10
  %14 = getelementptr inbounds nuw i8, ptr %4, i64 16
  %15 = load ptr, ptr %14, align 8
  %16 = zext nneg i32 %11 to i64
  %17 = getelementptr i8, ptr %15, i64 %16
  %18 = add nuw nsw i32 %11, 8
  store i32 %18, ptr %4, align 8
  br label %23

19:                                               ; preds = %10
  %20 = getelementptr inbounds nuw i8, ptr %4, i64 8
  %21 = load ptr, ptr %20, align 8
  %22 = getelementptr i8, ptr %21, i64 8
  store ptr %22, ptr %20, align 8
  br label %23

23:                                               ; preds = %19, %13
  %24 = phi ptr [ %17, %13 ], [ %21, %19 ]
  %25 = load i32, ptr %24, align 4
  br label %26

26:                                               ; preds = %23, %8
  %.038 = phi i32 [ %25, %23 ], [ 438, %8 ]
  %27 = xor i32 %3, -1
  %28 = and i32 %.038, %27
  store ptr %1, ptr %6, align 8
  %29 = getelementptr inbounds nuw i8, ptr %6, i64 8
  %30 = getelementptr inbounds nuw i8, ptr %6, i64 32
  %31 = getelementptr inbounds nuw i8, ptr %6, i64 40
  %32 = getelementptr inbounds nuw i8, ptr %6, i64 48
  %33 = lshr i32 %2, 12
  %34 = trunc i32 %33 to i8
  %35 = and i8 %34, 1
  call void @llvm.memset.p0.i64(ptr noundef nonnull align 8 dereferenceable(40) %29, i8 0, i64 40, i1 false)
  store i8 %35, ptr %32, align 8
  %36 = call i32 @inode_find(ptr noundef nonnull %6) #6
  %37 = icmp slt i32 %36, 0
  br i1 %37, label %94, label %38

38:                                               ; preds = %26
  %39 = load ptr, ptr %29, align 8
  %40 = load i8, ptr %32, align 8
  %41 = trunc i8 %40 to i1
  %42 = getelementptr i8, ptr %39, i64 26
  %43 = load i16, ptr %42, align 2
  %44 = and i16 %43, 15
  %45 = icmp eq i16 %44, 8
  %or.cond = select i1 %41, i1 %45, i1 false
  br i1 %or.cond, label %96, label %._crit_edge

._crit_edge:                                      ; preds = %38
  %46 = getelementptr i8, ptr %39, i64 26
  %47 = getelementptr i8, ptr %39, i64 32
  %.val55 = load ptr, ptr %47, align 8
  %48 = icmp eq i16 %44, 0
  br i1 %48, label %inode_checkflags.exit, label %49

49:                                               ; preds = %._crit_edge
  %50 = icmp eq ptr %.val55, null
  br i1 %50, label %inode_checkflags.exit.thread, label %51

51:                                               ; preds = %49
  %52 = and i32 %2, 1
  %.not.i = icmp eq i32 %52, 0
  br i1 %.not.i, label %59, label %53

53:                                               ; preds = %51
  %54 = getelementptr inbounds nuw i8, ptr %.val55, i64 16
  %55 = load ptr, ptr %54, align 8
  %.not10.i = icmp eq ptr %55, null
  br i1 %.not10.i, label %56, label %59

56:                                               ; preds = %53
  %57 = getelementptr inbounds nuw i8, ptr %.val55, i64 40
  %58 = load ptr, ptr %57, align 8
  %.not11.i = icmp eq ptr %58, null
  br i1 %.not11.i, label %inode_checkflags.exit.thread, label %59

59:                                               ; preds = %56, %53, %51
  %60 = and i32 %2, 2
  %.not12.i = icmp eq i32 %60, 0
  br i1 %.not12.i, label %inode_checkflags.exit, label %61

61:                                               ; preds = %59
  %62 = getelementptr inbounds nuw i8, ptr %.val55, i64 24
  %63 = load ptr, ptr %62, align 8
  %.not13.i = icmp eq ptr %63, null
  br i1 %.not13.i, label %64, label %inode_checkflags.exit

64:                                               ; preds = %61
  %65 = getelementptr inbounds nuw i8, ptr %.val55, i64 40
  %66 = load ptr, ptr %65, align 8
  %.not14.i = icmp eq ptr %66, null
  br i1 %.not14.i, label %inode_checkflags.exit.thread, label %inode_checkflags.exit

inode_checkflags.exit:                            ; preds = %59, %61, %64, %._crit_edge
  call void @llvm.memset.p0.i64(ptr noundef nonnull align 8 dereferenceable(24) %0, i8 0, i64 24, i1 false)
  store i32 %2, ptr %0, align 8
  %67 = getelementptr inbounds nuw i8, ptr %0, i64 8
  store ptr %39, ptr %67, align 8
  %68 = and i32 %2, 2048
  %.not50 = icmp eq i32 %68, 0
  br i1 %.not50, label %72, label %69

69:                                               ; preds = %inode_checkflags.exit
  %70 = load ptr, ptr %30, align 8
  %71 = call i32 @dir_allocate(ptr noundef nonnull %0, ptr noundef %70) #6
  br label %86

72:                                               ; preds = %inode_checkflags.exit
  %73 = load i16, ptr %46, align 2
  %74 = and i16 %73, 15
  switch i16 %74, label %inode_checkflags.exit.thread [
    i16 3, label %75
    i16 1, label %81
    i16 10, label %81
  ]

75:                                               ; preds = %72
  %76 = load ptr, ptr %47, align 8
  %77 = load ptr, ptr %76, align 8
  %.not52 = icmp eq ptr %77, null
  br i1 %.not52, label %.thread.thread, label %78

78:                                               ; preds = %75
  %79 = load ptr, ptr %30, align 8
  %80 = call i32 %77(ptr noundef nonnull %0, ptr noundef %79, i32 noundef %2, i32 noundef %28) #6
  br label %86

81:                                               ; preds = %72, %72
  %82 = load ptr, ptr %47, align 8
  %83 = load ptr, ptr %82, align 8
  %.not51 = icmp eq ptr %83, null
  br i1 %.not51, label %.thread.thread, label %84

84:                                               ; preds = %81
  %85 = call i32 %83(ptr noundef nonnull %0) #6
  br label %86

86:                                               ; preds = %78, %84, %69
  %.1 = phi i32 [ %71, %69 ], [ %80, %78 ], [ %85, %84 ]
  %87 = icmp eq i32 %.1, -21
  br i1 %87, label %88, label %.thread

88:                                               ; preds = %86
  %89 = load ptr, ptr %30, align 8
  %90 = call i32 @dir_allocate(ptr noundef nonnull %0, ptr noundef %89) #6
  br label %.thread

.thread:                                          ; preds = %88, %86
  %.2 = phi i32 [ %90, %88 ], [ %.1, %86 ]
  %91 = icmp slt i32 %.2, 0
  br i1 %91, label %inode_checkflags.exit.thread, label %.thread.thread

.thread.thread:                                   ; preds = %75, %81, %.thread
  %92 = load ptr, ptr %31, align 8
  %.not53 = icmp eq ptr %92, null
  br i1 %.not53, label %96, label %.sink.split

inode_checkflags.exit.thread:                     ; preds = %72, %56, %64, %49, %.thread
  %.0 = phi i32 [ %.2, %.thread ], [ -13, %56 ], [ -13, %64 ], [ -6, %49 ], [ -6, %72 ]
  %93 = getelementptr inbounds nuw i8, ptr %0, i64 8
  store ptr null, ptr %93, align 8
  call void @inode_release(ptr noundef nonnull %39) #6
  br label %94

94:                                               ; preds = %26, %inode_checkflags.exit.thread
  %.3 = phi i32 [ %36, %26 ], [ %.0, %inode_checkflags.exit.thread ]
  %95 = load ptr, ptr %31, align 8
  %.not54 = icmp eq ptr %95, null
  br i1 %.not54, label %96, label %.sink.split

.sink.split:                                      ; preds = %94, %.thread.thread
  %.sink = phi ptr [ %92, %.thread.thread ], [ %95, %94 ]
  %.039.ph = phi i32 [ 0, %.thread.thread ], [ %.3, %94 ]
  call void @free(ptr noundef nonnull %.sink)
  br label %96

96:                                               ; preds = %.sink.split, %38, %94, %.thread.thread, %5
  %.039 = phi i32 [ -22, %5 ], [ 0, %.thread.thread ], [ %.3, %94 ], [ -40, %38 ], [ %.039.ph, %.sink.split ]
  ret i32 %.039
}